target datalayout = "e-m:e-p270:32:32-p271:32:32-p272:64:64-i64:64-i128:128-f80:128-n8:16:32:64-S128"
target triple = "x86_64-pc-linux-gnu"

%struct.nameData = type { [64 x i8] }
%struct.RelationData = type { %struct.RelFileLocator, ptr, i32, i32, i8, i8, i8, i8, i8, i32, i32, i32, i32, ptr, ptr, i32, %struct.LockInfoData, ptr, ptr, ptr, ptr, ptr, i8, ptr, ptr, ptr, ptr, ptr, ptr, i32, ptr, i8, ptr, ptr, i32, i8, i32, ptr, i8, ptr, ptr, ptr, ptr, ptr, ptr, ptr, i32, ptr, ptr, ptr, ptr, ptr, ptr, ptr, ptr, ptr, ptr, ptr, ptr, ptr, ptr, ptr, ptr, ptr, ptr, ptr, i32, i8, ptr }
%struct.RelFileLocator = type { i32, i32, i32 }
%struct.LockInfoData = type { %struct.LockRelId }
%struct.LockRelId = type { i32, i32 }
%struct.FormData_pg_class = type { i32, %struct.nameData, i32, i32, i32, i32, i32, i32, i32, i32, float, i32, i32, i8, i8, i8, i8, i16, i16, i8, i8, i8, i8, i8, i8, i8, i8, i32, i32, i32 }
%struct.FormData_pg_am = type { i32, %struct.nameData, i32, i8 }
%struct.HeapTupleData = type { i32, %struct.ItemPointerData, i32, ptr }
%struct.ItemPointerData = type { %struct.BlockIdData, i16 }
%struct.BlockIdData = type { i16, i16 }
%struct.HeapTupleHeaderData = type { %union.anon, %struct.ItemPointerData, i16, i16, i8, [0 x i8] }
%union.anon = type { %struct.HeapTupleFields }
%struct.HeapTupleFields = type { i32, i32, %union.anon.0 }
%union.anon.0 = type { i32 }

@.str.1 = private unnamed_addr constant [11 x i8] c"relcache.c\00", align 1
@.str.2 = private unnamed_addr constant [41 x i8] c"cache lookup failed for access method %u\00", align 1
@__func__.RelationInitTableAccessMethod = private unnamed_addr constant [30 x i8] c"RelationInitTableAccessMethod\00", align 1

; Function Attrs: nounwind uwtable
define internal void @InitTableAmRoutine(ptr noundef %0) #0 {
  %2 = alloca ptr, align 8
  store ptr %0, ptr %2, align 8
  %3 = load ptr, ptr %2, align 8
  %4 = getelementptr inbounds nuw %struct.RelationData, ptr %3, i32 0, i32 46
  %5 = load i32, ptr %4, align 8
  %6 = call ptr @GetTableAmRoutine(i32 noundef %5)
  %7 = load ptr, ptr %2, align 8
  %8 = getelementptr inbounds nuw %struct.RelationData, ptr %7, i32 0, i32 47
  store ptr %6, ptr %8, align 8
  ret void
}

; Function Attrs: inlinehint nounwind uwtable
define internal ptr @GETSTRUCT(ptr noundef %0) #3 {
  %2 = alloca ptr, align 8
  store ptr %0, ptr %2, align 8
  %3 = load ptr, ptr %2, align 8
  %4 = getelementptr inbounds nuw %struct.HeapTupleData, ptr %3, i32 0, i32 3
  %5 = load ptr, ptr %4, align 8
  %6 = load ptr, ptr %2, align 8
  %7 = getelementptr inbounds nuw %struct.HeapTupleData, ptr %6, i32 0, i32 3
  %8 = load ptr, ptr %7, align 8
  %9 = getelementptr inbounds nuw %struct.HeapTupleHeaderData, ptr %8, i32 0, i32 4
  %10 = load i8, ptr %9, align 2
  %11 = zext i8 %10 to i32
  %12 = sext i32 %11 to i64
  %13 = getelementptr inbounds i8, ptr %5, i64 %12
  ret ptr %13
}

; Function Attrs: inlinehint nounwind uwtable
define internal i64 @ObjectIdGetDatum(i32 noundef %0) #3 {
  %2 = alloca i32, align 4
  store i32 %0, ptr %2, align 4
  %3 = load i32, ptr %2, align 4
  %4 = zext i32 %3 to i64
  ret i64 %4
}

; Function Attrs: nounwind uwtable
define dso_local void @RelationInitTableAccessMethod(ptr noundef %0) #0 {
  %2 = alloca ptr, align 8
  %3 = alloca ptr, align 8
  %4 = alloca ptr, align 8
  store ptr %0, ptr %2, align 8
  call void @llvm.lifetime.start.p0(i64 8, ptr %3) #11
  call void @llvm.lifetime.start.p0(i64 8, ptr %4) #11
  %5 = load ptr, ptr %2, align 8
  %6 = getelementptr inbounds nuw %struct.RelationData, ptr %5, i32 0, i32 13
  %7 = load ptr, ptr %6, align 8
  %8 = getelementptr inbounds nuw %struct.FormData_pg_class, ptr %7, i32 0, i32 16
  %9 = load i8, ptr %8, align 1
  %10 = sext i8 %9 to i32
  %11 = icmp eq i32 %10, 83
  br i1 %11, label %12, label %15

12:                                               ; preds = %1
  %13 = load ptr, ptr %2, align 8
  %14 = getelementptr inbounds nuw %struct.RelationData, ptr %13, i32 0, i32 46
  store i32 3, ptr %14, align 8
  br label %57

15:                                               ; preds = %1
  %16 = load ptr, ptr %2, align 8
  %17 = call zeroext i1 @IsCatalogRelation(ptr noundef %16)
  br i1 %17, label %18, label %21

18:                                               ; preds = %15
  %19 = load ptr, ptr %2, align 8
  %20 = getelementptr inbounds nuw %struct.RelationData, ptr %19, i32 0, i32 46
  store i32 3, ptr %20, align 8
  br label %56

21:                                               ; preds = %15
  %22 = load ptr, ptr %2, align 8
  %23 = getelementptr inbounds nuw %struct.RelationData, ptr %22, i32 0, i32 13
  %24 = load ptr, ptr %23, align 8
  %25 = getelementptr inbounds nuw %struct.FormData_pg_class, ptr %24, i32 0, i32 6
  %26 = load i32, ptr %25, align 4
  %27 = call i64 @ObjectIdGetDatum(i32 noundef %26)
  %28 = call ptr @SearchSysCache1(i32 noundef 2, i64 noundef %27)
  store ptr %28, ptr %3, align 8
  %29 = load ptr, ptr %3, align 8
  %30 = icmp ne ptr %29, null
  br i1 %30, label %47, label %31

31:                                               ; preds = %21
  br label %32

32:                                               ; preds = %31
  br i1 true, label %33, label %35

33:                                               ; preds = %32
  %34 = call zeroext i1 @errstart_cold(i32 noundef 21, ptr noundef null) #12
  br i1 %34, label %37, label %44

35:                                               ; preds = %32
  %36 = call zeroext i1 @errstart(i32 noundef 21, ptr noundef null)
  br i1 %36, label %37, label %44

37:                                               ; preds = %35, %33
  %38 = load ptr, ptr %2, align 8
  %39 = getelementptr inbounds nuw %struct.RelationData, ptr %38, i32 0, i32 13
  %40 = load ptr, ptr %39, align 8
  %41 = getelementptr inbounds nuw %struct.FormData_pg_class, ptr %40, i32 0, i32 6
  %42 = load i32, ptr %41, align 4
  %43 = call i32 (ptr, ...) @errmsg_internal(ptr noundef @.str.2, i32 noundef %42)
  call void @errfinish(ptr noundef @.str.1, i32 noundef 1834, ptr noundef @__func__.RelationInitTableAccessMethod)
  br label %44

44:                                               ; preds = %37, %35, %33
  unreachable

45:                                               ; No predecessors!
  br label %46

46:                                               ; preds = %45
  br label %47

47:                                               ; preds = %46, %21
  %48 = load ptr, ptr %3, align 8
  %49 = call ptr @GETSTRUCT(ptr noundef %48)
  store ptr %49, ptr %4, align 8
  %50 = load ptr, ptr %4, align 8
  %51 = getelementptr inbounds nuw %struct.FormData_pg_am, ptr %50, i32 0, i32 2
  %52 = load i32, ptr %51, align 4
  %53 = load ptr, ptr %2, align 8
  %54 = getelementptr inbounds nuw %struct.RelationData, ptr %53, i32 0, i32 46
  store i32 %52, ptr %54, align 8
  %55 = load ptr, ptr %3, align 8
  call void @ReleaseSysCache(ptr noundef %55)
  br label %56

56:                                               ; preds = %47, %18
  br label %57

57:                                               ; preds = %56, %12
  %58 = load ptr, ptr %2, align 8
  call void @InitTableAmRoutine(ptr noundef %58)
  call void @llvm.lifetime.end.p0(i64 8, ptr %4) #11
  call void @llvm.lifetime.end.p0(i64 8, ptr %3) #11
  ret void
}