; Function Attrs: nounwind uwtable
define dso_local void @RelationInitTableAccessMethod(ptr noundef %0) local_unnamed_addr #0 {
  %2 = getelementptr inbounds nuw i8, ptr %0, i64 56
  %3 = load ptr, ptr %2, align 8
  %4 = getelementptr inbounds nuw i8, ptr %3, i64 115
  %5 = load i8, ptr %4, align 1
  %6 = icmp eq i8 %5, 83
  br i1 %6, label %7, label %9

7:                                                ; preds = %1
  %8 = getelementptr inbounds nuw i8, ptr %0, i64 312
  store i32 3, ptr %8, align 8
  br label %34

9:                                                ; preds = %1
  %10 = tail call zeroext i1 @IsCatalogRelation(ptr noundef nonnull %0) #13
  br i1 %10, label %11, label %13

11:                                               ; preds = %9
  %12 = getelementptr inbounds nuw i8, ptr %0, i64 312
  store i32 3, ptr %12, align 8
  br label %34

13:                                               ; preds = %9
  %14 = load ptr, ptr %2, align 8
  %15 = getelementptr inbounds nuw i8, ptr %14, i64 84
  %16 = load i32, ptr %15, align 4
  %17 = zext i32 %16 to i64
  %18 = tail call ptr @SearchSysCache1(i32 noundef 2, i64 noundef %17) #13
  %.not = icmp eq ptr %18, null
  br i1 %.not, label %19, label %25

19:                                               ; preds = %13
  %20 = tail call zeroext i1 @errstart_cold(i32 noundef 21, ptr noundef null) #14
  tail call void @llvm.assume(i1 %20)
  %21 = load ptr, ptr %2, align 8
  %22 = getelementptr inbounds nuw i8, ptr %21, i64 84
  %23 = load i32, ptr %22, align 4
  %24 = tail call i32 (ptr, ...) @errmsg_internal(ptr noundef nonnull @.str.2, i32 noundef %23) #13
  tail call void @errfinish(ptr noundef nonnull @.str.1, i32 noundef 1834, ptr noundef nonnull @__func__.RelationInitTableAccessMethod) #13
  unreachable

25:                                               ; preds = %13
  %26 = getelementptr i8, ptr %18, i64 16
  %.val = load ptr, ptr %26, align 8
  %27 = getelementptr inbounds nuw i8, ptr %.val, i64 22
  %28 = load i8, ptr %27, align 2
  %29 = zext i8 %28 to i64
  %30 = getelementptr inbounds nuw i8, ptr %.val, i64 %29
  %31 = getelementptr inbounds nuw i8, ptr %30, i64 68
  %32 = load i32, ptr %31, align 4
  %33 = getelementptr inbounds nuw i8, ptr %0, i64 312
  store i32 %32, ptr %33, align 8
  tail call void @ReleaseSysCache(ptr noundef nonnull %18) #13
  %.pre = load i32, ptr %33, align 8
  br label %34

34:                                               ; preds = %11, %25, %7
  %35 = phi i32 [ 3, %11 ], [ %.pre, %25 ], [ 3, %7 ]
  %36 = tail call ptr @GetTableAmRoutine(i32 noundef %35) #13
  %37 = getelementptr inbounds nuw i8, ptr %0, i64 320
  store ptr %36, ptr %37, align 8
  ret void
}